target datalayout = "e-m:e-p270:32:32-p271:32:32-p272:64:64-i64:64-i128:128-f80:128-n8:16:32:64-S128"
target triple = "x86_64-pc-linux-gnu"

%struct.HTAB = type { ptr, ptr, ptr, ptr, ptr, ptr, ptr, ptr, i8, i8, i8, i64, i64, i32 }
%struct.HASHHDR = type { [32 x %struct.FreeListData], i64, i64, i32, i32, i32, i64, i64, i64, i64, i64, i32, i32 }
%struct.FreeListData = type { i8, i64, ptr }
%struct.HASH_SEQ_STATUS = type { ptr, i32, ptr, i8, i32 }

@.str.2 = private unnamed_addr constant [11 x i8] c"dynahash.c\00", align 1
@num_seq_scans = internal global i32 0, align 4
@seq_scan_tables = internal global [100 x ptr] zeroinitializer, align 16
@seq_scan_level = internal global [100 x i32] zeroinitializer, align 16
@.str.14 = private unnamed_addr constant [64 x i8] c"too many active hash_seq_search scans, cannot start one on \22%s\22\00", align 1
@__func__.register_seq_scan = private unnamed_addr constant [18 x i8] c"register_seq_scan\00", align 1

; Function Attrs: inlinehint nounwind uwtable
define internal i32 @calc_bucket(ptr noundef %0, i32 noundef %1) #7 {
  %3 = alloca ptr, align 8
  %4 = alloca i32, align 4
  %5 = alloca i32, align 4
  store ptr %0, ptr %3, align 8
  store i32 %1, ptr %4, align 4
  call void @llvm.lifetime.start.p0(i64 4, ptr %5) #11
  %6 = load i32, ptr %4, align 4
  %7 = load ptr, ptr %3, align 8
  %8 = getelementptr inbounds nuw %struct.HASHHDR, ptr %7, i32 0, i32 4
  %9 = load i32, ptr %8, align 4
  %10 = and i32 %6, %9
  store i32 %10, ptr %5, align 4
  %11 = load i32, ptr %5, align 4
  %12 = load ptr, ptr %3, align 8
  %13 = getelementptr inbounds nuw %struct.HASHHDR, ptr %12, i32 0, i32 3
  %14 = load i32, ptr %13, align 8
  %15 = icmp ugt i32 %11, %14
  br i1 %15, label %16, label %22

16:                                               ; preds = %2
  %17 = load i32, ptr %5, align 4
  %18 = load ptr, ptr %3, align 8
  %19 = getelementptr inbounds nuw %struct.HASHHDR, ptr %18, i32 0, i32 5
  %20 = load i32, ptr %19, align 8
  %21 = and i32 %17, %20
  store i32 %21, ptr %5, align 4
  br label %22

22:                                               ; preds = %16, %2
  %23 = load i32, ptr %5, align 4
  call void @llvm.lifetime.end.p0(i64 4, ptr %5) #11
  ret i32 %23
}

; Function Attrs: nounwind uwtable
define internal void @register_seq_scan(ptr noundef %0) #0 {
  %2 = alloca ptr, align 8
  store ptr %0, ptr %2, align 8
  %3 = load i32, ptr @num_seq_scans, align 4
  %4 = icmp sge i32 %3, 100
  br i1 %4, label %5, label %18

5:                                                ; preds = %1
  br label %6

6:                                                ; preds = %5
  br i1 true, label %7, label %9

7:                                                ; preds = %6
  %8 = call zeroext i1 @errstart_cold(i32 noundef 21, ptr noundef null) #13
  br i1 %8, label %11, label %16

9:                                                ; preds = %6
  %10 = call zeroext i1 @errstart(i32 noundef 21, ptr noundef null)
  br i1 %10, label %11, label %16

11:                                               ; preds = %9, %7
  %12 = load ptr, ptr %2, align 8
  %13 = getelementptr inbounds nuw %struct.HTAB, ptr %12, i32 0, i32 7
  %14 = load ptr, ptr %13, align 8
  %15 = call i32 (ptr, ...) @errmsg_internal(ptr noundef @.str.14, ptr noundef %14)
  call void @errfinish(ptr noundef @.str.2, i32 noundef 1869, ptr noundef @__func__.register_seq_scan)
  br label %16

16:                                               ; preds = %11, %9, %7
  unreachable

17:                                               ; No predecessors!
  br label %18

18:                                               ; preds = %17, %1
  %19 = load ptr, ptr %2, align 8
  %20 = load i32, ptr @num_seq_scans, align 4
  %21 = sext i32 %20 to i64
  %22 = getelementptr inbounds [100 x ptr], ptr @seq_scan_tables, i64 0, i64 %21
  store ptr %19, ptr %22, align 8
  %23 = call i32 @GetCurrentTransactionNestLevel()
  %24 = load i32, ptr @num_seq_scans, align 4
  %25 = sext i32 %24 to i64
  %26 = getelementptr inbounds [100 x i32], ptr @seq_scan_level, i64 0, i64 %25
  store i32 %23, ptr %26, align 4
  %27 = load i32, ptr @num_seq_scans, align 4
  %28 = add i32 %27, 1
  store i32 %28, ptr @num_seq_scans, align 4
  ret void
}

; Function Attrs: inlinehint nounwind uwtable
define internal i32 @hash_initial_lookup(ptr noundef %0, i32 noundef %1, ptr noundef %2) #7 {
  %4 = alloca ptr, align 8
  %5 = alloca i32, align 4
  %6 = alloca ptr, align 8
  %7 = alloca ptr, align 8
  %8 = alloca ptr, align 8
  %9 = alloca i64, align 8
  %10 = alloca i64, align 8
  %11 = alloca i32, align 4
  store ptr %0, ptr %4, align 8
  store i32 %1, ptr %5, align 4
  store ptr %2, ptr %6, align 8
  call void @llvm.lifetime.start.p0(i64 8, ptr %7) #11
  %12 = load ptr, ptr %4, align 8
  %13 = getelementptr inbounds nuw %struct.HTAB, ptr %12, i32 0, i32 0
  %14 = load ptr, ptr %13, align 8
  store ptr %14, ptr %7, align 8
  call void @llvm.lifetime.start.p0(i64 8, ptr %8) #11
  call void @llvm.lifetime.start.p0(i64 8, ptr %9) #11
  call void @llvm.lifetime.start.p0(i64 8, ptr %10) #11
  call void @llvm.lifetime.start.p0(i64 4, ptr %11) #11
  %15 = load ptr, ptr %7, align 8
  %16 = load i32, ptr %5, align 4
  %17 = call i32 @calc_bucket(ptr noundef %15, i32 noundef %16)
  store i32 %17, ptr %11, align 4
  %18 = load i32, ptr %11, align 4
  %19 = load ptr, ptr %4, align 8
  %20 = getelementptr inbounds nuw %struct.HTAB, ptr %19, i32 0, i32 13
  %21 = load i32, ptr %20, align 8
  %22 = lshr i32 %18, %21
  %23 = zext i32 %22 to i64
  store i64 %23, ptr %9, align 8
  %24 = load i32, ptr %11, align 4
  %25 = zext i32 %24 to i64
  %26 = load ptr, ptr %4, align 8
  %27 = getelementptr inbounds nuw %struct.HTAB, ptr %26, i32 0, i32 12
  %28 = load i64, ptr %27, align 8
  %29 = sub i64 %28, 1
  %30 = and i64 %25, %29
  store i64 %30, ptr %10, align 8
  %31 = load ptr, ptr %4, align 8
  %32 = getelementptr inbounds nuw %struct.HTAB, ptr %31, i32 0, i32 1
  %33 = load ptr, ptr %32, align 8
  %34 = load i64, ptr %9, align 8
  %35 = getelementptr inbounds ptr, ptr %33, i64 %34
  %36 = load ptr, ptr %35, align 8
  store ptr %36, ptr %8, align 8
  %37 = load ptr, ptr %8, align 8
  %38 = icmp eq ptr %37, null
  br i1 %38, label %39, label %41

39:                                               ; preds = %3
  %40 = load ptr, ptr %4, align 8
  call void @hash_corrupted(ptr noundef %40) #14
  unreachable

41:                                               ; preds = %3
  %42 = load ptr, ptr %8, align 8
  %43 = load i64, ptr %10, align 8
  %44 = getelementptr inbounds ptr, ptr %42, i64 %43
  %45 = load ptr, ptr %6, align 8
  store ptr %44, ptr %45, align 8
  %46 = load i32, ptr %11, align 4
  call void @llvm.lifetime.end.p0(i64 4, ptr %11) #11
  call void @llvm.lifetime.end.p0(i64 8, ptr %10) #11
  call void @llvm.lifetime.end.p0(i64 8, ptr %9) #11
  call void @llvm.lifetime.end.p0(i64 8, ptr %8) #11
  call void @llvm.lifetime.end.p0(i64 8, ptr %7) #11
  ret i32 %46
}

; Function Attrs: nounwind uwtable
define dso_local void @hash_seq_init(ptr noundef %0, ptr noundef %1) #0 {
  %3 = alloca ptr, align 8
  %4 = alloca ptr, align 8
  store ptr %0, ptr %3, align 8
  store ptr %1, ptr %4, align 8
  %5 = load ptr, ptr %4, align 8
  %6 = load ptr, ptr %3, align 8
  %7 = getelementptr inbounds nuw %struct.HASH_SEQ_STATUS, ptr %6, i32 0, i32 0
  store ptr %5, ptr %7, align 8
  %8 = load ptr, ptr %3, align 8
  %9 = getelementptr inbounds nuw %struct.HASH_SEQ_STATUS, ptr %8, i32 0, i32 1
  store i32 0, ptr %9, align 8
  %10 = load ptr, ptr %3, align 8
  %11 = getelementptr inbounds nuw %struct.HASH_SEQ_STATUS, ptr %10, i32 0, i32 2
  store ptr null, ptr %11, align 8
  %12 = load ptr, ptr %3, align 8
  %13 = getelementptr inbounds nuw %struct.HASH_SEQ_STATUS, ptr %12, i32 0, i32 3
  store i8 0, ptr %13, align 8
  %14 = load ptr, ptr %4, align 8
  %15 = getelementptr inbounds nuw %struct.HTAB, ptr %14, i32 0, i32 10
  %16 = load i8, ptr %15, align 2, !range !12, !noundef !13
  %17 = trunc i8 %16 to i1
  br i1 %17, label %20, label %18

18:                                               ; preds = %2
  %19 = load ptr, ptr %4, align 8
  call void @register_seq_scan(ptr noundef %19)
  br label %20

20:                                               ; preds = %18, %2
  ret void
}

; Function Attrs: nounwind uwtable
define dso_local void @hash_seq_init_with_hash_value(ptr noundef %0, ptr noundef %1, i32 noundef %2) #0 {
  %4 = alloca ptr, align 8
  %5 = alloca ptr, align 8
  %6 = alloca i32, align 4
  %7 = alloca ptr, align 8
  store ptr %0, ptr %4, align 8
  store ptr %1, ptr %5, align 8
  store i32 %2, ptr %6, align 4
  call void @llvm.lifetime.start.p0(i64 8, ptr %7) #11
  %8 = load ptr, ptr %4, align 8
  %9 = load ptr, ptr %5, align 8
  call void @hash_seq_init(ptr noundef %8, ptr noundef %9)
  %10 = load ptr, ptr %4, align 8
  %11 = getelementptr inbounds nuw %struct.HASH_SEQ_STATUS, ptr %10, i32 0, i32 3
  store i8 1, ptr %11, align 8
  %12 = load i32, ptr %6, align 4
  %13 = load ptr, ptr %4, align 8
  %14 = getelementptr inbounds nuw %struct.HASH_SEQ_STATUS, ptr %13, i32 0, i32 4
  store i32 %12, ptr %14, align 4
  %15 = load ptr, ptr %5, align 8
  %16 = load i32, ptr %6, align 4
  %17 = call i32 @hash_initial_lookup(ptr noundef %15, i32 noundef %16, ptr noundef %7)
  %18 = load ptr, ptr %4, align 8
  %19 = getelementptr inbounds nuw %struct.HASH_SEQ_STATUS, ptr %18, i32 0, i32 1
  store i32 %17, ptr %19, align 8
  %20 = load ptr, ptr %7, align 8
  %21 = load ptr, ptr %20, align 8
  %22 = load ptr, ptr %4, align 8
  %23 = getelementptr inbounds nuw %struct.HASH_SEQ_STATUS, ptr %22, i32 0, i32 2
  store ptr %21, ptr %23, align 8
  call void @llvm.lifetime.end.p0(i64 8, ptr %7) #11
  ret void
}