; Function Attrs: nounwind uwtable
define dso_local void @hash_seq_init_with_hash_value(ptr noundef writeonly captures(none) initializes((0, 12), (16, 25)) %0, ptr noundef %1, i32 noundef %2) local_unnamed_addr #0 {
  store ptr %1, ptr %0, align 8
  %4 = getelementptr inbounds nuw i8, ptr %0, i64 8
  store i32 0, ptr %4, align 8
  %5 = getelementptr inbounds nuw i8, ptr %0, i64 16
  store ptr null, ptr %5, align 8
  %6 = getelementptr inbounds nuw i8, ptr %0, i64 24
  store i8 0, ptr %6, align 8
  %7 = getelementptr inbounds nuw i8, ptr %1, i64 66
  %8 = load i8, ptr %7, align 2, !range !10, !noundef !11
  %9 = trunc nuw i8 %8 to i1
  br i1 %9, label %hash_seq_init.exit, label %10

10:                                               ; preds = %3
  %11 = load i32, ptr @num_seq_scans, align 4
  %12 = icmp sgt i32 %11, 99
  br i1 %12, label %13, label %register_seq_scan.exit.i

13:                                               ; preds = %10
  %14 = tail call zeroext i1 @errstart_cold(i32 noundef 21, ptr noundef null) #19
  tail call void @llvm.assume(i1 %14)
  %15 = getelementptr inbounds nuw i8, ptr %1, i64 56
  %16 = load ptr, ptr %15, align 8
  %17 = tail call i32 (ptr, ...) @errmsg_internal(ptr noundef nonnull @.str.14, ptr noundef %16) #17
  tail call void @errfinish(ptr noundef nonnull @.str.2, i32 noundef 1869, ptr noundef nonnull @__func__.register_seq_scan) #17
  unreachable

register_seq_scan.exit.i:                         ; preds = %10
  %18 = sext i32 %11 to i64
  %19 = getelementptr inbounds [100 x ptr], ptr @seq_scan_tables, i64 0, i64 %18
  store ptr %1, ptr %19, align 8
  %20 = tail call i32 @GetCurrentTransactionNestLevel() #17
  %21 = load i32, ptr @num_seq_scans, align 4
  %22 = sext i32 %21 to i64
  %23 = getelementptr inbounds [100 x i32], ptr @seq_scan_level, i64 0, i64 %22
  store i32 %20, ptr %23, align 4
  %24 = add i32 %21, 1
  store i32 %24, ptr @num_seq_scans, align 4
  br label %hash_seq_init.exit

hash_seq_init.exit:                               ; preds = %3, %register_seq_scan.exit.i
  store i8 1, ptr %6, align 8
  %25 = getelementptr inbounds nuw i8, ptr %0, i64 28
  store i32 %2, ptr %25, align 4
  %26 = load ptr, ptr %1, align 8
  %27 = getelementptr inbounds nuw i8, ptr %26, i64 788
  %28 = load i32, ptr %27, align 4
  %29 = and i32 %28, %2
  %30 = getelementptr inbounds nuw i8, ptr %26, i64 784
  %31 = load i32, ptr %30, align 8
  %32 = icmp ugt i32 %29, %31
  br i1 %32, label %33, label %calc_bucket.exit.i

33:                                               ; preds = %hash_seq_init.exit
  %34 = getelementptr inbounds nuw i8, ptr %26, i64 792
  %35 = load i32, ptr %34, align 8
  %36 = and i32 %35, %29
  br label %calc_bucket.exit.i

calc_bucket.exit.i:                               ; preds = %33, %hash_seq_init.exit
  %.0.i.i = phi i32 [ %36, %33 ], [ %29, %hash_seq_init.exit ]
  %37 = getelementptr inbounds nuw i8, ptr %1, i64 88
  %38 = load i32, ptr %37, align 8
  %39 = lshr i32 %.0.i.i, %38
  %40 = zext i32 %39 to i64
  %41 = getelementptr inbounds nuw i8, ptr %1, i64 8
  %42 = load ptr, ptr %41, align 8
  %43 = getelementptr inbounds nuw ptr, ptr %42, i64 %40
  %44 = load ptr, ptr %43, align 8
  %45 = icmp eq ptr %44, null
  br i1 %45, label %46, label %hash_initial_lookup.exit

46:                                               ; preds = %calc_bucket.exit.i
  tail call fastcc void @hash_corrupted(ptr noundef nonnull readonly %1) #20
  unreachable

hash_initial_lookup.exit:                         ; preds = %calc_bucket.exit.i
  %47 = zext i32 %.0.i.i to i64
  %48 = getelementptr inbounds nuw i8, ptr %1, i64 80
  %49 = load i64, ptr %48, align 8
  %50 = add i64 %49, 4294967295
  %51 = and i64 %50, %47
  %52 = getelementptr inbounds nuw ptr, ptr %44, i64 %51
  store i32 %.0.i.i, ptr %4, align 8
  %53 = load ptr, ptr %52, align 8
  store ptr %53, ptr %5, align 8
  ret void
}